; Function Attrs: nounwind uwtable
define void @Abc_TtCountOnesInCofsTest() local_unnamed_addr #5 {
  %1 = alloca i64, align 8
  %2 = alloca [4 x i64], align 16
  %3 = alloca [8 x i32], align 16
  %4 = alloca [8 x i32], align 16
  call void @llvm.lifetime.start.p0(i64 32, ptr nonnull %2) #8
  call void @llvm.memset.p0.i64(ptr noundef nonnull align 16 dereferenceable(32) %2, i8 0, i64 32, i1 false)
  call void @llvm.lifetime.start.p0(i64 32, ptr nonnull %3) #8
  call void @llvm.memset.p0.i64(ptr noundef nonnull align 16 dereferenceable(32) %3, i8 0, i64 32, i1 false)
  call void @llvm.lifetime.start.p0(i64 32, ptr nonnull %4) #8
  %5 = tail call i64 @time(ptr noundef null) #8
  %6 = trunc i64 %5 to i32
  tail call void @srand(i32 noundef %6) #8
  %7 = getelementptr inbounds nuw i8, ptr %4, i64 28
  br label %.preheader12

.preheader12:                                     ; preds = %0, %Abc_TtCountOnesInCofsQuick_rec.exit
  %.016 = phi i32 [ 0, %0 ], [ %44, %Abc_TtCountOnesInCofsQuick_rec.exit ]
  br label %.preheader

.preheader:                                       ; preds = %.preheader12, %17
  %indvars.iv19 = phi i64 [ 0, %.preheader12 ], [ %indvars.iv.next20, %17 ]
  %8 = getelementptr inbounds nuw [4 x i64], ptr %2, i64 0, i64 %indvars.iv19
  br label %9

9:                                                ; preds = %.preheader, %9
  %indvars.iv = phi i64 [ 0, %.preheader ], [ %indvars.iv.next, %9 ]
  %10 = call i32 @rand() #8
  %11 = and i32 %10, 255
  %12 = zext nneg i32 %11 to i64
  %13 = shl nuw nsw i64 %indvars.iv, 3
  %14 = shl nuw i64 %12, %13
  %15 = load i64, ptr %8, align 8, !tbaa !9
  %16 = xor i64 %14, %15
  store i64 %16, ptr %8, align 8, !tbaa !9
  %indvars.iv.next = add nuw nsw i64 %indvars.iv, 1
  %exitcond.not = icmp eq i64 %indvars.iv.next, 8
  br i1 %exitcond.not, label %17, label %9, !llvm.loop !18

17:                                               ; preds = %9
  %indvars.iv.next20 = add nuw nsw i64 %indvars.iv19, 1
  %exitcond22.not = icmp eq i64 %indvars.iv.next20, 4
  br i1 %exitcond22.not, label %18, label %.preheader, !llvm.loop !19

18:                                               ; preds = %17
  %19 = call i32 @Abc_TtCountOnesInCofsSimple(ptr noundef nonnull %2, i32 noundef 8, ptr noundef nonnull %3) #8
  call void @llvm.memset.p0.i64(ptr noundef nonnull align 16 dereferenceable(32) %4, i8 0, i64 32, i1 false)
  call void @llvm.lifetime.start.p0(i64 8, ptr nonnull %1) #8
  br label %20

20:                                               ; preds = %20, %18
  %indvars.iv.i = phi i64 [ 0, %18 ], [ %indvars.iv.next.i, %20 ]
  %21 = phi i64 [ 0, %18 ], [ %27, %20 ]
  %22 = getelementptr inbounds nuw i8, ptr %2, i64 %indvars.iv.i
  %23 = load i8, ptr %22, align 1, !tbaa !14
  %24 = zext i8 %23 to i64
  %25 = getelementptr inbounds nuw [256 x [32 x i64]], ptr @Table, i64 0, i64 %24, i64 %indvars.iv.i
  %26 = load i64, ptr %25, align 8, !tbaa !9
  %27 = add i64 %26, %21
  %indvars.iv.next.i = add nuw nsw i64 %indvars.iv.i, 1
  %exitcond.not.i = icmp eq i64 %indvars.iv.next.i, 16
  br i1 %exitcond.not.i, label %28, label %20, !llvm.loop !15

28:                                               ; preds = %20
  %29 = lshr i64 %27, 56
  %30 = trunc nuw nsw i64 %29 to i32
  store i32 %30, ptr %7, align 4, !tbaa !3
  br label %.lr.ph.i

.preheader.loopexit.i:                            ; preds = %.lr.ph.i
  store i64 %37, ptr %1, align 8
  br label %.lr.ph55.i

.lr.ph.i:                                         ; preds = %.lr.ph.i, %28
  %indvars.iv61.i = phi i64 [ %indvars.iv.next62.i, %.lr.ph.i ], [ 16, %28 ]
  %31 = phi i64 [ %37, %.lr.ph.i ], [ %27, %28 ]
  %32 = getelementptr inbounds nuw i8, ptr %2, i64 %indvars.iv61.i
  %33 = load i8, ptr %32, align 1, !tbaa !14
  %34 = zext i8 %33 to i64
  %35 = getelementptr inbounds nuw [256 x [32 x i64]], ptr @Table, i64 0, i64 %34, i64 %indvars.iv61.i
  %36 = load i64, ptr %35, align 8, !tbaa !9
  %37 = add i64 %36, %31
  %indvars.iv.next62.i = add nuw nsw i64 %indvars.iv61.i, 1
  %exitcond23.not = icmp eq i64 %indvars.iv.next62.i, 32
  br i1 %exitcond23.not, label %.preheader.loopexit.i, label %.lr.ph.i, !llvm.loop !16

.lr.ph55.i:                                       ; preds = %.lr.ph55.i, %.preheader.loopexit.i
  %indvars.iv63.i = phi i64 [ 0, %.preheader.loopexit.i ], [ %indvars.iv.next64.i, %.lr.ph55.i ]
  %38 = getelementptr inbounds nuw i8, ptr %1, i64 %indvars.iv63.i
  %39 = load i8, ptr %38, align 1, !tbaa !14
  %40 = zext i8 %39 to i32
  %41 = getelementptr inbounds nuw i32, ptr %4, i64 %indvars.iv63.i
  %42 = load i32, ptr %41, align 4, !tbaa !3
  %43 = add nsw i32 %42, %40
  store i32 %43, ptr %41, align 4, !tbaa !3
  %indvars.iv.next64.i = add nuw nsw i64 %indvars.iv63.i, 1
  %exitcond67.not.i = icmp eq i64 %indvars.iv.next64.i, 7
  br i1 %exitcond67.not.i, label %Abc_TtCountOnesInCofsQuick_rec.exit, label %.lr.ph55.i, !llvm.loop !17

Abc_TtCountOnesInCofsQuick_rec.exit:              ; preds = %.lr.ph55.i
  call void @llvm.lifetime.end.p0(i64 8, ptr nonnull %1) #8
  %44 = add nuw nsw i32 %.016, 1
  %exitcond24.not = icmp eq i32 %44, 1000000
  br i1 %exitcond24.not, label %45, label %.preheader12, !llvm.loop !20

45:                                               ; preds = %Abc_TtCountOnesInCofsQuick_rec.exit
  call void @llvm.lifetime.end.p0(i64 32, ptr nonnull %4) #8
  call void @llvm.lifetime.end.p0(i64 32, ptr nonnull %3) #8
  call void @llvm.lifetime.end.p0(i64 32, ptr nonnull %2) #8
  ret void
}